Certificate:
    Data:
        Version: 3 (0x2)
        Serial Number:
            86:fb:ac:cf:ab:0e:a8:98:66:6c:cf:64:56:44:45:ff
        Signature Algorithm: sha256WithRSAEncryption
        Issuer: CN=Easy-RSA CA
        Validity
            Not Before: Mar 15 09:39:33 2026 GMT
            Not After : Jun 17 09:39:33 2028 GMT
        Subject: CN=server
        Subject Public Key Info:
            Public Key Algorithm: rsaEncryption
                Public-Key: (2048 bit)
                Modulus:
                    00:af:e9:9a:46:20:ac:25:6a:dd:3c:95:90:01:82:
                    40:27:ad:28:80:d8:06:ca:ea:a1:10:f3:ac:bb:84:
                    8a:03:6d:6b:d4:97:44:56:2a:ff:cd:d4:62:c6:fe:
                    2f:e8:f3:85:aa:ba:51:7d:a0:2b:d0:d7:c1:af:a7:
                    48:b0:e1:66:e7:e4:5b:4e:f0:70:2f:53:47:a0:d0:
                    d9:5e:dc:93:57:da:91:7e:2f:9b:6c:53:26:de:45:
                    0c:ec:7b:6c:e8:86:97:7d:62:97:15:84:db:36:ed:
                    c1:a3:89:02:86:fe:6d:8f:ee:d8:2f:79:4f:28:69:
                    5d:d5:ed:76:2e:3a:f1:1e:ea:0a:0f:8f:01:1e:a7:
                    0b:9b:f7:62:89:f1:32:b3:d3:87:86:62:c1:97:e7:
                    df:6f:1e:f7:be:cd:82:15:88:2b:4b:aa:0d:89:83:
                    68:5a:2a:59:6e:40:d6:cc:d9:fe:c0:23:9f:43:c5:
                    a5:c2:90:12:32:9f:2e:34:de:76:07:09:66:b9:e6:
                    92:1e:38:5f:1e:5d:3a:35:74:3a:05:95:3a:8a:c4:
                    fd:81:5a:c6:f8:19:34:34:c5:a5:6e:73:2a:5d:67:
                    7b:44:fa:03:a1:e0:e2:97:0c:79:1d:ed:e8:9b:c0:
                    09:27:21:1d:a3:65:5b:62:5a:33:01:cf:73:7c:e5:
                    21:77
                Exponent: 65537 (0x10001)
        X509v3 extensions:
            X509v3 Basic Constraints: 
                CA:FALSE
            X509v3 Subject Key Identifier: 
                7B:67:73:D5:8D:7D:92:7B:82:D8:91:6F:08:F3:74:62:B0:D1:60:81
            X509v3 Authority Key Identifier: 
                keyid:7D:19:68:66:34:3C:6F:7E:3B:93:07:3A:97:CD:F0:C7:DD:7C:35:9D
                DirName:/CN=Easy-RSA CA
                serial:3B:B5:73:48:F2:82:A7:AA:2D:94:39:BB:BE:74:B8:90:2A:0F:45:D1
            X509v3 Extended Key Usage: 
                TLS Web Server Authentication
            X509v3 Key Usage: 
                Digital Signature, Key Encipherment
    Signature Algorithm: sha256WithRSAEncryption
    Signature Value:
        31:71:8c:08:db:d9:c2:26:5d:7e:e9:6a:98:6e:75:24:05:8a:
        3f:27:76:0e:c7:00:00:0f:d4:fc:f7:cd:0d:80:a7:44:d5:d5:
        e8:52:ae:23:61:b8:64:8d:60:87:25:ee:80:fb:d1:0e:0d:f9:
        df:85:b0:2d:0c:9f:72:4b:93:48:bc:90:05:c8:66:6e:85:ef:
        52:7c:26:ab:0c:26:6d:0c:f1:c8:2b:b7:3d:87:f0:97:17:5f:
        30:6e:f2:78:08:7b:76:1d:52:63:68:74:e7:f2:a4:c6:06:da:
        5c:41:26:39:49:ef:bf:c5:11:d5:57:1e:7b:64:f4:44:14:35:
        64:1e:fc:9a:91:e3:51:07:07:f4:a0:49:a1:d6:72:af:55:74:
        d4:7d:7f:3c:2a:0e:65:57:f3:98:a6:67:a8:ef:2d:44:02:95:
        1d:6d:7e:87:43:ed:a7:34:ff:ad:48:41:d1:4b:dd:93:44:c4:
        9d:02:f5:2c:ac:c1:e5:88:96:5c:83:51:33:10:6b:19:bc:24:
        d3:93:dc:27:d3:12:b8:1e:69:82:22:ea:38:93:26:6d:70:b6:
        be:30:03:92:7c:0f:0f:72:08:4e:35:d9:c9:ee:8d:d9:a9:63:
        30:00:09:51:43:09:79:73:eb:ba:87:78:ce:0d:62:34:d9:90:
        87:45:84:81
-----BEGIN CERTIFICATE-----
MIIDVTCCAj2gAwIBAgIRAIb7rM+rDqiYZmzPZFZERf8wDQYJKoZIhvcNAQELBQAw
FjEUMBIGA1UEAwwLRWFzeS1SU0EgQ0EwHhcNMjYwMzE1MDkzOTMzWhcNMjgwNjE3
MDkzOTMzWjARMQ8wDQYDVQQDDAZzZXJ2ZXIwggEiMA0GCSqGSIb3DQEBAQUAA4IB
DwAwggEKAoIBAQCv6ZpGIKwlat08lZABgkAnrSiA2AbK6qEQ86y7hIoDbWvUl0RW
Kv/N1GLG/i/o84WqulF9oCvQ18Gvp0iw4Wbn5FtO8HAvU0eg0Nle3JNX2pF+L5ts
UybeRQzse2zohpd9YpcVhNs27cGjiQKG/m2P7tgveU8oaV3V7XYuOvEe6goPjwEe
pwub92KJ8TKz04eGYsGX599vHve+zYIViCtLqg2Jg2haKlluQNbM2f7AI59DxaXC
kBIyny403nYHCWa55pIeOF8eXTo1dDoFlTqKxP2BWsb4GTQ0xaVucypdZ3tE+gOh
4OKXDHkd7eibwAknIR2jZVtiWjMBz3N85SF3AgMBAAGjgaIwgZ8wCQYDVR0TBAIw
ADAdBgNVHQ4EFgQUe2dz1Y19knuC2JFvCPN0YrDRYIEwUQYDVR0jBEowSIAUfRlo
ZjQ8b347kwc6l83wx918NZ2hGqQYMBYxFDASBgNVBAMMC0Vhc3ktUlNBIENBghQ7
tXNI8oKnqi2UObu+dLiQKg9F0TATBgNVHSUEDDAKBggrBgEFBQcDATALBgNVHQ8E
BAMCBaAwDQYJKoZIhvcNAQELBQADggEBADFxjAjb2cImXX7paphudSQFij8ndg7H
AAAP1Pz3zQ2Ap0TV1ehSriNhuGSNYIcl7oD70Q4N+d+FsC0Mn3JLk0i8kAXIZm6F
71J8JqsMJm0M8cgrtz2H8JcXXzBu8ngIe3YdUmNodOfypMYG2lxBJjlJ77/FEdVX
Hntk9EQUNWQe/JqR41EHB/SgSaHWcq9VdNR9fzwqDmVX85imZ6jvLUQClR1tfodD
7ac0/61IQdFL3ZNExJ0C9SysweWIllyDUTMQaxm8JNOT3CfTErgeaYIi6jiTJm1w
tr4wA5J8Dw9yCE412cnujdmpYzAACVFDCXlz67qHeM4NYjTZkIdFhIE=
-----END CERTIFICATE-----
