Certificate:
    Data:
        Version: 3 (0x2)
        Serial Number:
            d6:8f:d2:ef:21:94:10:2b:06:34:ab:85:52:d8:9a:cc
        Signature Algorithm: sha256WithRSAEncryption
        Issuer: CN=81.214.86.32
        Validity
            Not Before: Mar 15 17:10:07 2026 GMT
            Not After : Jun 17 17:10:07 2028 GMT
        Subject: CN=81.214.86.32
        Subject Public Key Info:
            Public Key Algorithm: rsaEncryption
                Public-Key: (2048 bit)
                Modulus:
                    00:a0:98:d9:cd:86:5d:e8:c8:57:b7:8e:87:97:8c:
                    9c:4a:f0:49:01:ab:ff:55:0c:81:da:0e:be:1a:e6:
                    36:10:44:66:27:28:70:f6:17:cd:15:77:b6:38:3d:
                    d6:0c:97:d0:37:6b:33:fc:48:21:ce:0d:ca:32:44:
                    33:4f:58:07:3e:61:3f:de:8f:f7:b7:c0:98:85:3e:
                    4b:2c:d3:9a:19:c0:04:52:10:1d:d5:d9:ed:c0:92:
                    12:79:11:20:4f:80:0e:4c:a9:39:6c:eb:07:b0:52:
                    80:6a:09:bb:00:bd:bc:66:da:f0:c7:04:6c:65:fa:
                    62:36:ac:ce:a9:8f:6b:c3:1c:85:94:3d:5a:13:56:
                    fe:4a:e7:d0:a7:a2:bc:87:d2:26:73:c5:97:f7:8f:
                    14:77:0f:9f:00:db:a2:73:1a:cc:d4:3c:a6:af:ff:
                    c7:cd:04:e6:4f:da:ab:6b:08:17:b7:65:93:a4:68:
                    7d:63:9c:56:72:a1:31:47:18:ac:69:d0:ed:91:47:
                    61:dd:0c:b3:5d:4d:1c:91:3a:27:f0:1e:2b:da:f1:
                    eb:5e:50:9f:53:04:2f:58:14:1b:3a:4d:21:b3:ee:
                    0f:c9:3b:46:29:ad:5b:9c:f4:ef:a4:d9:ed:f9:ec:
                    3f:35:90:b7:8a:c6:b4:17:af:bb:12:82:fa:50:67:
                    44:49
                Exponent: 65537 (0x10001)
        X509v3 extensions:
            X509v3 Basic Constraints: 
                CA:FALSE
            X509v3 Subject Key Identifier: 
                73:99:A8:9D:35:9C:43:F3:C9:E4:39:6B:74:C3:56:40:28:D2:F6:83
            X509v3 Authority Key Identifier: 
                keyid:C7:30:0F:73:01:E1:FA:97:97:FC:39:DB:52:6A:F6:BC:80:51:A7:8A
                DirName:/CN=81.214.86.32
                serial:53:B0:51:72:09:26:BF:91:BC:3A:3E:5D:F8:97:6F:B7:86:2C:F1:3A
            X509v3 Extended Key Usage: 
                TLS Web Client Authentication
            X509v3 Key Usage: 
                Digital Signature
    Signature Algorithm: sha256WithRSAEncryption
    Signature Value:
        a4:ae:f5:b7:dc:0a:38:9f:9b:2f:ed:13:d0:c2:62:8e:9f:1d:
        3f:27:69:dd:3e:88:45:13:70:62:e8:42:65:45:9c:ca:08:1f:
        fb:be:16:29:00:cc:b2:06:4f:fd:3f:d0:d2:07:92:59:1c:7c:
        37:87:e8:a5:b0:19:29:b6:93:08:84:f1:80:c3:6c:dc:6d:3c:
        28:3e:89:d2:96:24:97:f1:ae:49:86:5a:12:bf:e8:0b:ab:a2:
        43:76:24:9c:09:3f:68:4c:45:62:cf:8b:14:7d:e3:fb:a4:3f:
        79:3e:4c:95:01:7a:5d:8a:da:2d:17:97:5e:bd:0f:7b:b3:0a:
        67:8d:84:5f:a4:99:b7:37:68:5d:3b:3a:5f:0d:47:4a:c3:9b:
        c8:dc:a4:56:15:b9:15:15:87:85:1f:ca:4f:1e:6b:a5:a2:5d:
        80:a7:89:19:a6:17:35:64:22:45:f3:2f:d8:ee:92:4b:0a:fd:
        1c:f9:9b:31:88:85:0d:ab:e2:7b:c1:fa:0d:f1:ba:62:8b:b5:
        3e:11:bd:ba:1a:73:71:2b:04:77:3e:24:ab:69:3b:8e:af:c3:
        e5:06:29:bb:52:64:27:e3:92:26:e3:62:9f:03:f4:12:d5:28:
        34:6d:3b:10:7b:f4:0a:fe:37:2e:4c:2b:fa:ff:68:92:30:27:
        0a:27:d7:9c
-----BEGIN CERTIFICATE-----
MIIDXTCCAkWgAwIBAgIRANaP0u8hlBArBjSrhVLYmswwDQYJKoZIhvcNAQELBQAw
FzEVMBMGA1UEAwwMODEuMjE0Ljg2LjMyMB4XDTI2MDMxNTE3MTAwN1oXDTI4MDYx
NzE3MTAwN1owFzEVMBMGA1UEAwwMODEuMjE0Ljg2LjMyMIIBIjANBgkqhkiG9w0B
AQEFAAOCAQ8AMIIBCgKCAQEAoJjZzYZd6MhXt46Hl4ycSvBJAav/VQyB2g6+GuY2
EERmJyhw9hfNFXe2OD3WDJfQN2sz/Eghzg3KMkQzT1gHPmE/3o/3t8CYhT5LLNOa
GcAEUhAd1dntwJISeREgT4AOTKk5bOsHsFKAagm7AL28ZtrwxwRsZfpiNqzOqY9r
wxyFlD1aE1b+SufQp6K8h9Imc8WX948Udw+fANuicxrM1Dymr//HzQTmT9qrawgX
t2WTpGh9Y5xWcqExRxisadDtkUdh3QyzXU0ckTon8B4r2vHrXlCfUwQvWBQbOk0h
s+4PyTtGKa1bnPTvpNnt+ew/NZC3isa0F6+7EoL6UGdESQIDAQABo4GjMIGgMAkG
A1UdEwQCMAAwHQYDVR0OBBYEFHOZqJ01nEPzyeQ5a3TDVkAo0vaDMFIGA1UdIwRL
MEmAFMcwD3MB4fqXl/w521Jq9ryAUaeKoRukGTAXMRUwEwYDVQQDDAw4MS4yMTQu
ODYuMzKCFFOwUXIJJr+RvDo+XfiXb7eGLPE6MBMGA1UdJQQMMAoGCCsGAQUFBwMC
MAsGA1UdDwQEAwIHgDANBgkqhkiG9w0BAQsFAAOCAQEApK71t9wKOJ+bL+0T0MJi
jp8dPydp3T6IRRNwYuhCZUWcyggf+74WKQDMsgZP/T/Q0geSWRx8N4fopbAZKbaT
CITxgMNs3G08KD6J0pYkl/GuSYZaEr/oC6uiQ3YknAk/aExFYs+LFH3j+6Q/eT5M
lQF6XYraLReXXr0Pe7MKZ42EX6SZtzdoXTs6Xw1HSsObyNykVhW5FRWHhR/KTx5r
paJdgKeJGaYXNWQiRfMv2O6SSwr9HPmbMYiFDavie8H6DfG6You1PhG9uhpzcSsE
dz4kq2k7jq/D5QYpu1JkJ+OSJuNinwP0EtUoNG07EHv0Cv43Lkwr+v9okjAnCifX
nA==
-----END CERTIFICATE-----
